target datalayout = "e-m:e-p270:32:32-p271:32:32-p272:64:64-i64:64-i128:128-f80:128-n8:16:32:64-S128"
target triple = "x86_64-pc-linux-gnu"

; Function Attrs: nounwind uwtable
define internal void @premultiplyf32offset(ptr noundef %0, ptr noundef %1, ptr noundef %2, i64 noundef %3, i64 noundef %4, i64 noundef %5, i32 noundef %6, i32 noundef %7, i32 noundef %8, i32 noundef %9, i32 noundef %10) #1 {
  %12 = alloca ptr, align 8
  %13 = alloca ptr, align 8
  %14 = alloca ptr, align 8
  %15 = alloca i64, align 8
  %16 = alloca i64, align 8
  %17 = alloca i64, align 8
  %18 = alloca i32, align 4
  %19 = alloca i32, align 4
  %20 = alloca i32, align 4
  %21 = alloca i32, align 4
  %22 = alloca i32, align 4
  %23 = alloca ptr, align 8
  %24 = alloca ptr, align 8
  %25 = alloca ptr, align 8
  %26 = alloca i32, align 4
  %27 = alloca i32, align 4
  %28 = alloca float, align 4
  store ptr %0, ptr %12, align 8, !tbaa !91
  store ptr %1, ptr %13, align 8, !tbaa !91
  store ptr %2, ptr %14, align 8, !tbaa !91
  store i64 %3, ptr %15, align 8, !tbaa !50
  store i64 %4, ptr %16, align 8, !tbaa !50
  store i64 %5, ptr %17, align 8, !tbaa !50
  store i32 %6, ptr %18, align 4, !tbaa !37
  store i32 %7, ptr %19, align 4, !tbaa !37
  store i32 %8, ptr %20, align 4, !tbaa !37
  store i32 %9, ptr %21, align 4, !tbaa !37
  store i32 %10, ptr %22, align 4, !tbaa !37
  call void @llvm.lifetime.start.p0(i64 8, ptr %23) #11
  %29 = load ptr, ptr %12, align 8, !tbaa !91
  store ptr %29, ptr %23, align 8, !tbaa !109
  call void @llvm.lifetime.start.p0(i64 8, ptr %24) #11
  %30 = load ptr, ptr %13, align 8, !tbaa !91
  store ptr %30, ptr %24, align 8, !tbaa !109
  call void @llvm.lifetime.start.p0(i64 8, ptr %25) #11
  %31 = load ptr, ptr %14, align 8, !tbaa !91
  store ptr %31, ptr %25, align 8, !tbaa !109
  call void @llvm.lifetime.start.p0(i64 4, ptr %26) #11
  call void @llvm.lifetime.start.p0(i64 4, ptr %27) #11
  call void @llvm.lifetime.start.p0(i64 4, ptr %28) #11
  %32 = load i32, ptr %22, align 4, !tbaa !37
  %33 = sitofp i32 %32 to float
  %34 = fdiv nsz float %33, 6.553500e+04
  store float %34, ptr %28, align 4, !tbaa !111
  store i32 0, ptr %27, align 4, !tbaa !37
  br label %35

35:                                               ; preds = %79, %11
  %36 = load i32, ptr %27, align 4, !tbaa !37
  %37 = load i32, ptr %19, align 4, !tbaa !37
  %38 = icmp slt i32 %36, %37
  br i1 %38, label %39, label %82

39:                                               ; preds = %35
  store i32 0, ptr %26, align 4, !tbaa !37
  br label %40

40:                                               ; preds = %63, %39
  %41 = load i32, ptr %26, align 4, !tbaa !37
  %42 = load i32, ptr %18, align 4, !tbaa !37
  %43 = icmp slt i32 %41, %42
  br i1 %43, label %44, label %66

44:                                               ; preds = %40
  %45 = load ptr, ptr %23, align 8, !tbaa !109
  %46 = load i32, ptr %26, align 4, !tbaa !37
  %47 = sext i32 %46 to i64
  %48 = getelementptr inbounds float, ptr %45, i64 %47
  %49 = load float, ptr %48, align 4, !tbaa !111
  %50 = load float, ptr %28, align 4, !tbaa !111
  %51 = fsub nsz float %49, %50
  %52 = load ptr, ptr %24, align 8, !tbaa !109
  %53 = load i32, ptr %26, align 4, !tbaa !37
  %54 = sext i32 %53 to i64
  %55 = getelementptr inbounds float, ptr %52, i64 %54
  %56 = load float, ptr %55, align 4, !tbaa !111
  %57 = load float, ptr %28, align 4, !tbaa !111
  %58 = call nsz float @llvm.fmuladd.f32(float %51, float %56, float %57)
  %59 = load ptr, ptr %25, align 8, !tbaa !109
  %60 = load i32, ptr %26, align 4, !tbaa !37
  %61 = sext i32 %60 to i64
  %62 = getelementptr inbounds float, ptr %59, i64 %61
  store float %58, ptr %62, align 4, !tbaa !111
  br label %63

63:                                               ; preds = %44
  %64 = load i32, ptr %26, align 4, !tbaa !37
  %65 = add nsw i32 %64, 1
  store i32 %65, ptr %26, align 4, !tbaa !37
  br label %40, !llvm.loop !129

66:                                               ; preds = %40
  %67 = load i64, ptr %17, align 8, !tbaa !50
  %68 = sdiv i64 %67, 4
  %69 = load ptr, ptr %25, align 8, !tbaa !109
  %70 = getelementptr inbounds float, ptr %69, i64 %68
  store ptr %70, ptr %25, align 8, !tbaa !109
  %71 = load i64, ptr %15, align 8, !tbaa !50
  %72 = sdiv i64 %71, 4
  %73 = load ptr, ptr %23, align 8, !tbaa !109
  %74 = getelementptr inbounds float, ptr %73, i64 %72
  store ptr %74, ptr %23, align 8, !tbaa !109
  %75 = load i64, ptr %16, align 8, !tbaa !50
  %76 = sdiv i64 %75, 4
  %77 = load ptr, ptr %24, align 8, !tbaa !109
  %78 = getelementptr inbounds float, ptr %77, i64 %76
  store ptr %78, ptr %24, align 8, !tbaa !109
  br label %79

79:                                               ; preds = %66
  %80 = load i32, ptr %27, align 4, !tbaa !37
  %81 = add nsw i32 %80, 1
  store i32 %81, ptr %27, align 4, !tbaa !37
  br label %35, !llvm.loop !130

82:                                               ; preds = %35
  call void @llvm.lifetime.end.p0(i64 4, ptr %28) #11
  call void @llvm.lifetime.end.p0(i64 4, ptr %27) #11
  call void @llvm.lifetime.end.p0(i64 4, ptr %26) #11
  call void @llvm.lifetime.end.p0(i64 8, ptr %25) #11
  call void @llvm.lifetime.end.p0(i64 8, ptr %24) #11
  call void @llvm.lifetime.end.p0(i64 8, ptr %23) #11
  ret void
}