; Function Attrs: nofree norecurse nosync nounwind memory(argmem: readwrite) uwtable
define internal void @premultiplyf32offset(ptr noundef readonly captures(none) %0, ptr noundef readonly captures(none) %1, ptr noundef writeonly captures(none) %2, i64 noundef %3, i64 noundef %4, i64 noundef %5, i32 noundef %6, i32 noundef %7, i32 %8, i32 %9, i32 noundef %10) #5 {
  %12 = sitofp i32 %10 to float
  %13 = fdiv nsz float %12, 6.553500e+04
  %14 = icmp sgt i32 %7, 0
  br i1 %14, label %.preheader.lr.ph, label %._crit_edge32

.preheader.lr.ph:                                 ; preds = %11
  %15 = icmp sgt i32 %6, 0
  %16 = sdiv i64 %5, 4
  %17 = sdiv i64 %3, 4
  %18 = sdiv i64 %4, 4
  br i1 %15, label %.preheader.us.preheader, label %._crit_edge32

.preheader.us.preheader:                          ; preds = %.preheader.lr.ph
  %wide.trip.count = zext nneg i32 %6 to i64
  br label %.preheader.us

.preheader.us:                                    ; preds = %.preheader.us.preheader, %._crit_edge.us
  %.031.us = phi ptr [ %28, %._crit_edge.us ], [ %0, %.preheader.us.preheader ]
  %.02330.us = phi i32 [ %30, %._crit_edge.us ], [ 0, %.preheader.us.preheader ]
  %.02529.us = phi ptr [ %27, %._crit_edge.us ], [ %2, %.preheader.us.preheader ]
  %.02628.us = phi ptr [ %29, %._crit_edge.us ], [ %1, %.preheader.us.preheader ]
  br label %19

19:                                               ; preds = %.preheader.us, %19
  %indvars.iv = phi i64 [ 0, %.preheader.us ], [ %indvars.iv.next, %19 ]
  %20 = getelementptr inbounds nuw float, ptr %.031.us, i64 %indvars.iv
  %21 = load float, ptr %20, align 4, !tbaa !93
  %22 = fsub nsz float %21, %13
  %23 = getelementptr inbounds nuw float, ptr %.02628.us, i64 %indvars.iv
  %24 = load float, ptr %23, align 4, !tbaa !93
  %25 = tail call nsz float @llvm.fmuladd.f32(float %22, float %24, float %13)
  %26 = getelementptr inbounds nuw float, ptr %.02529.us, i64 %indvars.iv
  store float %25, ptr %26, align 4, !tbaa !93
  %indvars.iv.next = add nuw nsw i64 %indvars.iv, 1
  %exitcond.not = icmp eq i64 %indvars.iv.next, %wide.trip.count
  br i1 %exitcond.not, label %._crit_edge.us, label %19, !llvm.loop !111

._crit_edge.us:                                   ; preds = %19
  %27 = getelementptr inbounds float, ptr %.02529.us, i64 %16
  %28 = getelementptr inbounds float, ptr %.031.us, i64 %17
  %29 = getelementptr inbounds float, ptr %.02628.us, i64 %18
  %30 = add nuw nsw i32 %.02330.us, 1
  %exitcond35.not = icmp eq i32 %30, %7
  br i1 %exitcond35.not, label %._crit_edge32, label %.preheader.us, !llvm.loop !112

._crit_edge32:                                    ; preds = %._crit_edge.us, %.preheader.lr.ph, %11
  ret void
}